; Function Attrs: mustprogress uwtable
define dso_local noundef ptr @_ZN4Type30choose_random_struct_from_typeEPKS_b(ptr noundef readnone %0, i1 noundef zeroext %1) local_unnamed_addr #4 align 2 personality ptr @__gxx_personality_v0 {
  %3 = alloca %"class.std::vector", align 8
  %.not = icmp eq ptr %0, null
  br i1 %.not, label %_ZNSt6vectorIP4TypeSaIS1_EED2Ev.exit13, label %4

4:                                                ; preds = %2
  call void @llvm.memset.p0.i64(ptr noundef nonnull align 8 dereferenceable(24) %3, i8 0, i64 24, i1 false)
  invoke void @_ZN4Type29get_all_ok_struct_union_typesERSt6vectorIPS_SaIS1_EEbbbb(ptr noundef nonnull align 8 dereferenceable(24) %3, i1 noundef zeroext %1, i1 noundef zeroext false, i1 noundef zeroext true, i1 noundef zeroext true)
          to label %5 unwind label %15

5:                                                ; preds = %4
  %6 = getelementptr inbounds i8, ptr %3, i64 8
  %7 = load ptr, ptr %6, align 8
  %8 = load ptr, ptr %3, align 8
  %9 = ptrtoint ptr %7 to i64
  %10 = ptrtoint ptr %8 to i64
  %11 = sub i64 %9, %10
  %.not8 = icmp eq ptr %7, %8
  br i1 %.not8, label %_ZN4Type31choose_random_struct_union_typeERSt6vectorIPS_SaIS1_EE.exit, label %12

12:                                               ; preds = %5
  %13 = invoke noundef i32 @_ZN9DepthSpec20depth_guard_by_depthEi(i32 noundef 1)
          to label %14 unwind label %15

14:                                               ; preds = %12
  %.not9 = icmp eq i32 %13, 0
  br i1 %.not9, label %19, label %_ZN4Type31choose_random_struct_union_typeERSt6vectorIPS_SaIS1_EE.exit

15:                                               ; preds = %31, %19, %12, %4
  %16 = landingpad { ptr, i32 }
          cleanup
  %17 = load ptr, ptr %3, align 8
  %.not.i.i.i = icmp eq ptr %17, null
  br i1 %.not.i.i.i, label %_ZNSt6vectorIP4TypeSaIS1_EED2Ev.exit, label %18

18:                                               ; preds = %15
  tail call void @_ZdlPv(ptr noundef nonnull %17) #21
  br label %_ZNSt6vectorIP4TypeSaIS1_EED2Ev.exit

_ZNSt6vectorIP4TypeSaIS1_EED2Ev.exit:             ; preds = %15, %18
  resume { ptr, i32 } %16

19:                                               ; preds = %14
  %20 = lshr exact i64 %11, 3
  %21 = trunc i64 %20 to i32
  %22 = invoke noundef i32 @_Z8rnd_uptojPK6FilterPKNSt7__cxx1112basic_stringIcSt11char_traitsIcESaIcEEE(i32 noundef %21, ptr noundef null, ptr noundef null)
          to label %.noexc unwind label %15

.noexc:                                           ; preds = %19
  %23 = load i32, ptr @_ZN5Error8r_error_E, align 4
  %.not.i = icmp eq i32 %23, 0
  br i1 %.not.i, label %24, label %_ZN4Type31choose_random_struct_union_typeERSt6vectorIPS_SaIS1_EE.exit

24:                                               ; preds = %.noexc
  %25 = sext i32 %22 to i64
  %26 = getelementptr inbounds ptr, ptr %8, i64 %25
  %27 = load ptr, ptr %26, align 8
  %28 = getelementptr inbounds i8, ptr %27, i64 76
  %29 = load i8, ptr %28, align 4
  %30 = and i8 %29, 1
  %.not8.i = icmp eq i8 %30, 0
  br i1 %.not8.i, label %31, label %_ZN4Type31choose_random_struct_union_typeERSt6vectorIPS_SaIS1_EE.exit.thread

31:                                               ; preds = %24
  invoke void @_ZN10Bookkeeper26record_type_with_bitfieldsEPK4Type(ptr noundef nonnull %27)
          to label %.noexc11 unwind label %15

.noexc11:                                         ; preds = %31
  store i8 1, ptr %28, align 4
  %.pre = load i32, ptr @_ZN5Error8r_error_E, align 4
  %32 = icmp eq i32 %.pre, 0
  %33 = select i1 %32, ptr %27, ptr null
  br label %_ZN4Type31choose_random_struct_union_typeERSt6vectorIPS_SaIS1_EE.exit.thread

_ZN4Type31choose_random_struct_union_typeERSt6vectorIPS_SaIS1_EE.exit: ; preds = %.noexc, %5, %14
  %.0 = phi ptr [ null, %14 ], [ %0, %5 ], [ null, %.noexc ]
  %.not.i.i.i12 = icmp eq ptr %8, null
  br i1 %.not.i.i.i12, label %_ZNSt6vectorIP4TypeSaIS1_EED2Ev.exit13, label %_ZN4Type31choose_random_struct_union_typeERSt6vectorIPS_SaIS1_EE.exit.thread

_ZN4Type31choose_random_struct_union_typeERSt6vectorIPS_SaIS1_EE.exit.thread: ; preds = %.noexc11, %24, %_ZN4Type31choose_random_struct_union_typeERSt6vectorIPS_SaIS1_EE.exit
  %.016 = phi ptr [ %.0, %_ZN4Type31choose_random_struct_union_typeERSt6vectorIPS_SaIS1_EE.exit ], [ %27, %24 ], [ %33, %.noexc11 ]
  tail call void @_ZdlPv(ptr noundef nonnull %8) #21
  br label %_ZNSt6vectorIP4TypeSaIS1_EED2Ev.exit13

_ZNSt6vectorIP4TypeSaIS1_EED2Ev.exit13:           ; preds = %_ZN4Type31choose_random_struct_union_typeERSt6vectorIPS_SaIS1_EE.exit.thread, %_ZN4Type31choose_random_struct_union_typeERSt6vectorIPS_SaIS1_EE.exit, %2
  %.1 = phi ptr [ null, %2 ], [ %.0, %_ZN4Type31choose_random_struct_union_typeERSt6vectorIPS_SaIS1_EE.exit ], [ %.016, %_ZN4Type31choose_random_struct_union_typeERSt6vectorIPS_SaIS1_EE.exit.thread ]
  ret ptr %.1
}